target datalayout = "e-m:e-p270:32:32-p271:32:32-p272:64:64-i64:64-i128:128-f80:128-n8:16:32:64-S128"
target triple = "x86_64-pc-linux-gnu"

%struct._asn1_ctx_t = type { i32, i32, i8, ptr, ptr, ptr, ptr, ptr, %struct.anon, %struct.anon.2, %struct.anon.3, ptr }
%struct.anon = type { i32, i8, i8, i8, ptr, ptr, i32, i32, ptr, ptr, ptr, %union.anon }
%union.anon = type { %struct.anon.0 }
%struct.anon.0 = type { ptr }
%struct.anon.2 = type { ptr, ptr, ptr }
%struct.anon.3 = type { i32, i8, ptr, i32, i32, ptr, ptr, ptr, %union.anon.4 }
%union.anon.4 = type { %struct.anon.5 }
%struct.anon.5 = type { ptr }
%struct.SESSION_DATA_STRUCTURE = type { i8, i8, i8, i32, i8 }
%struct._packet_info = type { ptr, ptr, i32, i32, %struct.nstime_t, %struct.nstime_t, %struct.nstime_t, i8, ptr, ptr, ptr, ptr, %struct._address, %struct._address, %struct._address, %struct._address, %struct._address, %struct._address, i32, ptr, i8, [3 x i8], %struct.anon.7, i32, i32, i32, i32, ptr, i8, ptr, ptr, i16, i16, i32, i32, i16, i32, i32, ptr, ptr, ptr, i8, i8, i16, i16, i16, i32, i16, i16, ptr, ptr, ptr, ptr, ptr, i32, i32 }
%struct.nstime_t = type { i64, i32 }
%struct._address = type { i32, i32, ptr, ptr }
%struct.anon.7 = type { i8, [3 x i8] }

@hf_acse_indirect_reference = internal global i32 0, align 4
@indir_ref = internal global i32 0, align 4

; Function Attrs: null_pointer_is_valid sspstrong uwtable
define internal i32 @dissect_acse_T_indirect_reference(i1 noundef zeroext %0, ptr noundef %1, i32 noundef %2, ptr noundef %3, ptr noundef %4, i32 noundef %5) #0 {
  %7 = alloca i8, align 1
  %8 = alloca ptr, align 8
  %9 = alloca i32, align 4
  %10 = alloca ptr, align 8
  %11 = alloca ptr, align 8
  %12 = alloca i32, align 4
  %13 = alloca ptr, align 8
  %14 = alloca ptr, align 8
  %15 = zext i1 %0 to i8
  store i8 %15, ptr %7, align 1
  store ptr %1, ptr %8, align 8
  store i32 %2, ptr %9, align 4
  store ptr %3, ptr %10, align 8
  store ptr %4, ptr %11, align 8
  store i32 %5, ptr %12, align 4
  call void @llvm.lifetime.start.p0(i64 8, ptr %13) #6
  call void @llvm.lifetime.start.p0(i64 8, ptr %14) #6
  %16 = load ptr, ptr %10, align 8
  %17 = getelementptr inbounds nuw %struct._asn1_ctx_t, ptr %16, i32 0, i32 7
  %18 = load ptr, ptr %17, align 8
  store ptr %18, ptr %14, align 8
  %19 = load ptr, ptr %10, align 8
  %20 = load ptr, ptr %11, align 8
  %21 = load ptr, ptr %8, align 8
  %22 = load i32, ptr %9, align 4
  %23 = load i32, ptr @hf_acse_indirect_reference, align 4
  %24 = call i32 @dissect_ber_integer(i1 noundef zeroext false, ptr noundef %19, ptr noundef %20, ptr noundef %21, i32 noundef %22, i32 noundef %23, ptr noundef @indir_ref)
  store i32 %24, ptr %9, align 4
  %25 = load ptr, ptr %10, align 8
  %26 = getelementptr inbounds nuw %struct._asn1_ctx_t, ptr %25, i32 0, i32 3
  %27 = load ptr, ptr %26, align 8
  %28 = load i32, ptr @indir_ref, align 4
  %29 = call ptr @find_oid_by_pres_ctx_id(ptr noundef %27, i32 noundef %28)
  store ptr %29, ptr %13, align 8
  %30 = icmp ne ptr %29, null
  br i1 %30, label %31, label %45

31:                                               ; preds = %6
  %32 = load ptr, ptr %10, align 8
  %33 = getelementptr inbounds nuw %struct._asn1_ctx_t, ptr %32, i32 0, i32 3
  %34 = load ptr, ptr %33, align 8
  %35 = getelementptr inbounds nuw %struct._packet_info, ptr %34, i32 0, i32 51
  %36 = load ptr, ptr %35, align 8
  %37 = load ptr, ptr %13, align 8
  %38 = call noalias ptr @wmem_strdup(ptr noundef %36, ptr noundef %37)
  %39 = load ptr, ptr %10, align 8
  %40 = getelementptr inbounds nuw %struct._asn1_ctx_t, ptr %39, i32 0, i32 8
  %41 = getelementptr inbounds nuw %struct.anon, ptr %40, i32 0, i32 5
  store ptr %38, ptr %41, align 8
  %42 = load ptr, ptr %10, align 8
  %43 = getelementptr inbounds nuw %struct._asn1_ctx_t, ptr %42, i32 0, i32 8
  %44 = getelementptr inbounds nuw %struct.anon, ptr %43, i32 0, i32 2
  store i8 1, ptr %44, align 1
  br label %45

45:                                               ; preds = %31, %6
  %46 = load ptr, ptr %14, align 8
  %47 = icmp ne ptr %46, null
  br i1 %47, label %48, label %53

48:                                               ; preds = %45
  %49 = load i32, ptr @indir_ref, align 4
  %50 = trunc i32 %49 to i8
  %51 = load ptr, ptr %14, align 8
  %52 = getelementptr inbounds nuw %struct.SESSION_DATA_STRUCTURE, ptr %51, i32 0, i32 2
  store i8 %50, ptr %52, align 2
  br label %53

53:                                               ; preds = %48, %45
  %54 = load i32, ptr %9, align 4
  call void @llvm.lifetime.end.p0(i64 8, ptr %14) #6
  call void @llvm.lifetime.end.p0(i64 8, ptr %13) #6
  ret i32 %54
}