; Function Attrs: null_pointer_is_valid sspstrong uwtable
define internal i32 @dissect_acse_T_indirect_reference(i1 zeroext %0, ptr noundef %1, i32 noundef %2, ptr noundef %3, ptr noundef %4, i32 %5) #0 {
  %7 = getelementptr inbounds nuw i8, ptr %3, i64 48
  %8 = load ptr, ptr %7, align 8
  %9 = load i32, ptr @hf_acse_indirect_reference, align 4
  %10 = tail call i32 @dissect_ber_integer(i1 noundef zeroext false, ptr noundef %3, ptr noundef %4, ptr noundef %1, i32 noundef %2, i32 noundef %9, ptr noundef nonnull @indir_ref)
  %11 = getelementptr inbounds nuw i8, ptr %3, i64 16
  %12 = load ptr, ptr %11, align 8
  %13 = load i32, ptr @indir_ref, align 4
  %14 = tail call ptr @find_oid_by_pres_ctx_id(ptr noundef %12, i32 noundef %13)
  %.not = icmp eq ptr %14, null
  br i1 %.not, label %22, label %15

15:                                               ; preds = %6
  %16 = load ptr, ptr %11, align 8
  %17 = getelementptr inbounds nuw i8, ptr %16, i64 408
  %18 = load ptr, ptr %17, align 8
  %19 = tail call noalias ptr @wmem_strdup(ptr noundef %18, ptr noundef nonnull %14)
  %20 = getelementptr inbounds nuw i8, ptr %3, i64 72
  store ptr %19, ptr %20, align 8
  %21 = getelementptr inbounds nuw i8, ptr %3, i64 61
  store i8 1, ptr %21, align 1
  br label %22

22:                                               ; preds = %15, %6
  %.not13 = icmp eq ptr %8, null
  br i1 %.not13, label %27, label %23

23:                                               ; preds = %22
  %24 = load i32, ptr @indir_ref, align 4
  %25 = trunc i32 %24 to i8
  %26 = getelementptr inbounds nuw i8, ptr %8, i64 2
  store i8 %25, ptr %26, align 2
  br label %27

27:                                               ; preds = %23, %22
  ret i32 %10
}